target datalayout = "e-m:e-p270:32:32-p271:32:32-p272:64:64-i64:64-i128:128-f80:128-n8:16:32:64-S128"
target triple = "x86_64-pc-linux-gnu"

@dbus_resolve_names = internal global i8 1, align 1
@unique_name_map = internal global ptr null, align 8

; Function Attrs: null_pointer_is_valid sspstrong uwtable
define internal void @update_unique_name_map(ptr noundef %0, ptr noundef %1) #0 {
  %3 = alloca ptr, align 8
  %4 = alloca ptr, align 8
  %5 = alloca ptr, align 8
  %6 = alloca ptr, align 8
  %7 = alloca i32, align 4
  store ptr %0, ptr %3, align 8
  store ptr %1, ptr %4, align 8
  call void @llvm.lifetime.start.p0(i64 8, ptr %5) #11
  call void @llvm.lifetime.start.p0(i64 8, ptr %6) #11
  %8 = load i8, ptr @dbus_resolve_names, align 1, !range !6, !noundef !7
  %9 = trunc i8 %8 to i1
  br i1 %9, label %11, label %10

10:                                               ; preds = %2
  store i32 1, ptr %7, align 4
  br label %57

11:                                               ; preds = %2
  %12 = load ptr, ptr %3, align 8
  %13 = getelementptr i8, ptr %12, i64 0
  %14 = load i8, ptr %13, align 1
  %15 = sext i8 %14 to i32
  %16 = icmp eq i32 %15, 58
  br i1 %16, label %17, label %26

17:                                               ; preds = %11
  %18 = load ptr, ptr %4, align 8
  %19 = getelementptr i8, ptr %18, i64 0
  %20 = load i8, ptr %19, align 1
  %21 = sext i8 %20 to i32
  %22 = icmp ne i32 %21, 58
  br i1 %22, label %23, label %26

23:                                               ; preds = %17
  %24 = load ptr, ptr %3, align 8
  store ptr %24, ptr %5, align 8
  %25 = load ptr, ptr %4, align 8
  store ptr %25, ptr %6, align 8
  br label %43

26:                                               ; preds = %17, %11
  %27 = load ptr, ptr %4, align 8
  %28 = getelementptr i8, ptr %27, i64 0
  %29 = load i8, ptr %28, align 1
  %30 = sext i8 %29 to i32
  %31 = icmp eq i32 %30, 58
  br i1 %31, label %32, label %41

32:                                               ; preds = %26
  %33 = load ptr, ptr %3, align 8
  %34 = getelementptr i8, ptr %33, i64 0
  %35 = load i8, ptr %34, align 1
  %36 = sext i8 %35 to i32
  %37 = icmp ne i32 %36, 58
  br i1 %37, label %38, label %41

38:                                               ; preds = %32
  %39 = load ptr, ptr %4, align 8
  store ptr %39, ptr %5, align 8
  %40 = load ptr, ptr %3, align 8
  store ptr %40, ptr %6, align 8
  br label %42

41:                                               ; preds = %32, %26
  store i32 1, ptr %7, align 4
  br label %57

42:                                               ; preds = %38
  br label %43

43:                                               ; preds = %42, %23
  %44 = load ptr, ptr @unique_name_map, align 8
  %45 = load ptr, ptr %5, align 8
  %46 = call zeroext i1 @wmem_map_contains(ptr noundef %44, ptr noundef %45)
  br i1 %46, label %56, label %47

47:                                               ; preds = %43
  %48 = load ptr, ptr @unique_name_map, align 8
  %49 = call ptr @wmem_file_scope()
  %50 = load ptr, ptr %5, align 8
  %51 = call noalias ptr @wmem_strdup(ptr noundef %49, ptr noundef %50)
  %52 = call ptr @wmem_file_scope()
  %53 = load ptr, ptr %6, align 8
  %54 = call noalias ptr @wmem_strdup(ptr noundef %52, ptr noundef %53)
  %55 = call ptr @wmem_map_insert(ptr noundef %48, ptr noundef %51, ptr noundef %54)
  br label %56

56:                                               ; preds = %47, %43
  store i32 0, ptr %7, align 4
  br label %57

57:                                               ; preds = %56, %41, %10
  call void @llvm.lifetime.end.p0(i64 8, ptr %6) #11
  call void @llvm.lifetime.end.p0(i64 8, ptr %5) #11
  %58 = load i32, ptr %7, align 4
  switch i32 %58, label %60 [
    i32 0, label %59
    i32 1, label %59
  ]

59:                                               ; preds = %57, %57
  ret void

60:                                               ; preds = %57
  unreachable
}