; Function Attrs: null_pointer_is_valid sspstrong uwtable
define internal fastcc void @update_unique_name_map(ptr noundef nonnull %0, ptr noundef %1) unnamed_addr #0 {
  %3 = load i8, ptr @dbus_resolve_names, align 1, !range !12, !noundef !13
  %4 = trunc nuw i8 %3 to i1
  br i1 %4, label %5, label %.thread13

5:                                                ; preds = %2
  %6 = load i8, ptr %0, align 1
  %7 = icmp eq i8 %6, 58
  %8 = load i8, ptr %1, align 1
  %.not = icmp eq i8 %8, 58
  br i1 %7, label %9, label %10

9:                                                ; preds = %5
  br i1 %.not, label %.thread13, label %11

10:                                               ; preds = %5
  br i1 %.not, label %11, label %.thread13

11:                                               ; preds = %10, %9
  %.011 = phi ptr [ %0, %9 ], [ %1, %10 ]
  %.0 = phi ptr [ %1, %9 ], [ %0, %10 ]
  %12 = load ptr, ptr @unique_name_map, align 8
  %13 = tail call zeroext i1 @wmem_map_contains(ptr noundef %12, ptr noundef %.011)
  br i1 %13, label %.thread13, label %14

14:                                               ; preds = %11
  %15 = load ptr, ptr @unique_name_map, align 8
  %16 = tail call ptr @wmem_file_scope()
  %17 = tail call noalias ptr @wmem_strdup(ptr noundef %16, ptr noundef %.011)
  %18 = tail call ptr @wmem_file_scope()
  %19 = tail call noalias ptr @wmem_strdup(ptr noundef %18, ptr noundef %.0)
  %20 = tail call ptr @wmem_map_insert(ptr noundef %15, ptr noundef %17, ptr noundef %19)
  br label %.thread13

.thread13:                                        ; preds = %9, %11, %14, %10, %2
  ret void
}